target datalayout = "e-m:e-p270:32:32-p271:32:32-p272:64:64-i64:64-i128:128-f80:128-n8:16:32:64-S128"
target triple = "x86_64-unknown-linux-gnu"

%"struct.icu_75::number::impl::ParsedPatternInfo" = type <{ %"class.icu_75::number::impl::AffixPatternProvider", %"class.icu_75::UnicodeString", %"struct.icu_75::number::impl::ParsedSubpatternInfo", %"struct.icu_75::number::impl::ParsedSubpatternInfo", %"struct.icu_75::number::impl::ParsedPatternInfo::ParserState", ptr, i8, [7 x i8] }>
%"class.icu_75::number::impl::AffixPatternProvider" = type { ptr }
%"class.icu_75::UnicodeString" = type { %"class.icu_75::Replaceable", %"union.icu_75::UnicodeString::StackBufferOrFields" }
%"class.icu_75::Replaceable" = type { %"class.icu_75::UObject" }
%"class.icu_75::UObject" = type { ptr }
%"union.icu_75::UnicodeString::StackBufferOrFields" = type { %struct.anon.0, [32 x i8] }
%struct.anon.0 = type { i16, i32, i32, ptr }
%"struct.icu_75::number::impl::ParsedSubpatternInfo" = type { i64, i32, i32, i32, i32, i32, i32, i32, i32, i8, i32, i8, i32, %"class.icu_75::number::impl::DecimalQuantity", i8, i32, i8, i8, i8, i8, i8, i8, %"struct.icu_75::number::impl::Endpoints", %"struct.icu_75::number::impl::Endpoints", %"struct.icu_75::number::impl::Endpoints" }
%"class.icu_75::number::impl::DecimalQuantity" = type <{ %"class.icu_75::IFixedDecimal", i8, [3 x i8], i32, i32, i8, i8, [2 x i8], double, i32, i32, i32, i32, %union.anon, i8, i8, [6 x i8] }>
%"class.icu_75::IFixedDecimal" = type { ptr }
%union.anon = type { %struct.anon.1 }
%struct.anon.1 = type { ptr, i32 }
%"struct.icu_75::number::impl::Endpoints" = type { i32, i32 }
%"struct.icu_75::number::impl::ParsedPatternInfo::ParserState" = type <{ ptr, i32, [4 x i8] }>

; Function Attrs: mustprogress nounwind uwtable
define linkonce_odr noundef i32 @_ZNK6icu_7513UnicodeString14getShortLengthEv(ptr noundef nonnull align 8 dereferenceable(64) %this) #0 comdat align 2 {
entry:
  %this.addr = alloca ptr, align 8
  store ptr %this, ptr %this.addr, align 8
  %this1 = load ptr, ptr %this.addr, align 8
  %fUnion = getelementptr inbounds %"class.icu_75::UnicodeString", ptr %this1, i32 0, i32 1
  %fLengthAndFlags = getelementptr inbounds %struct.anon.0, ptr %fUnion, i32 0, i32 0
  %0 = load i16, ptr %fLengthAndFlags, align 8
  %conv = sext i16 %0 to i32
  %shr = ashr i32 %conv, 5
  ret i32 %shr
}

; Function Attrs: mustprogress nounwind uwtable
define linkonce_odr noundef signext i8 @_ZNK6icu_7513UnicodeString14hasShortLengthEv(ptr noundef nonnull align 8 dereferenceable(64) %this) #0 comdat align 2 {
entry:
  %this.addr = alloca ptr, align 8
  store ptr %this, ptr %this.addr, align 8
  %this1 = load ptr, ptr %this.addr, align 8
  %fUnion = getelementptr inbounds %"class.icu_75::UnicodeString", ptr %this1, i32 0, i32 1
  %fLengthAndFlags = getelementptr inbounds %struct.anon.0, ptr %fUnion, i32 0, i32 0
  %0 = load i16, ptr %fLengthAndFlags, align 8
  %conv = sext i16 %0 to i32
  %cmp = icmp sge i32 %conv, 0
  %conv2 = zext i1 %cmp to i8
  ret i8 %conv2
}

; Function Attrs: mustprogress uwtable
define linkonce_odr noundef i32 @_ZNK6icu_7513UnicodeString6lengthEv(ptr noundef nonnull align 8 dereferenceable(64) %this) #1 comdat align 2 {
entry:
  %this.addr = alloca ptr, align 8
  store ptr %this, ptr %this.addr, align 8
  %this1 = load ptr, ptr %this.addr, align 8
  %call = call noundef signext i8 @_ZNK6icu_7513UnicodeString14hasShortLengthEv(ptr noundef nonnull align 8 dereferenceable(64) %this1)
  %tobool = icmp ne i8 %call, 0
  br i1 %tobool, label %cond.true, label %cond.false

cond.true:                                        ; preds = %entry
  %call2 = call noundef i32 @_ZNK6icu_7513UnicodeString14getShortLengthEv(ptr noundef nonnull align 8 dereferenceable(64) %this1)
  br label %cond.end

cond.false:                                       ; preds = %entry
  %fUnion = getelementptr inbounds %"class.icu_75::UnicodeString", ptr %this1, i32 0, i32 1
  %fLength = getelementptr inbounds %struct.anon.0, ptr %fUnion, i32 0, i32 1
  %0 = load i32, ptr %fLength, align 4
  br label %cond.end

cond.end:                                         ; preds = %cond.false, %cond.true
  %cond = phi i32 [ %call2, %cond.true ], [ %0, %cond.false ]
  ret i32 %cond
}

; Function Attrs: mustprogress nounwind uwtable
define internal noundef signext i8 @_ZL9U_FAILURE10UErrorCode(i32 noundef %code) #0 {
entry:
  %code.addr = alloca i32, align 4
  store i32 %code, ptr %code.addr, align 4
  %0 = load i32, ptr %code.addr, align 4
  %cmp = icmp sgt i32 %0, 0
  %conv = zext i1 %cmp to i8
  ret i8 %conv
}

; Function Attrs: mustprogress uwtable
define noundef i32 @_ZN6icu_756number4impl17ParsedPatternInfo11ParserState4peekEv(ptr noundef nonnull align 8 dereferenceable(12) %this) #1 align 2 {
entry:
  %retval = alloca i32, align 4
  %this.addr = alloca ptr, align 8
  store ptr %this, ptr %this.addr, align 8
  %this1 = load ptr, ptr %this.addr, align 8
  %offset = getelementptr inbounds %"struct.icu_75::number::impl::ParsedPatternInfo::ParserState", ptr %this1, i32 0, i32 1
  %0 = load i32, ptr %offset, align 8
  %pattern = getelementptr inbounds %"struct.icu_75::number::impl::ParsedPatternInfo::ParserState", ptr %this1, i32 0, i32 0
  %1 = load ptr, ptr %pattern, align 8
  %call = call noundef i32 @_ZNK6icu_7513UnicodeString6lengthEv(ptr noundef nonnull align 8 dereferenceable(64) %1)
  %cmp = icmp eq i32 %0, %call
  br i1 %cmp, label %if.then, label %if.else

if.then:                                          ; preds = %entry
  store i32 -1, ptr %retval, align 4
  br label %return

if.else:                                          ; preds = %entry
  %pattern2 = getelementptr inbounds %"struct.icu_75::number::impl::ParsedPatternInfo::ParserState", ptr %this1, i32 0, i32 0
  %2 = load ptr, ptr %pattern2, align 8
  %offset3 = getelementptr inbounds %"struct.icu_75::number::impl::ParsedPatternInfo::ParserState", ptr %this1, i32 0, i32 1
  %3 = load i32, ptr %offset3, align 8
  %call4 = call noundef i32 @_ZNK6icu_7513UnicodeString8char32AtEi(ptr noundef nonnull align 8 dereferenceable(64) %2, i32 noundef %3)
  store i32 %call4, ptr %retval, align 4
  br label %return

return:                                           ; preds = %if.else, %if.then
  %4 = load i32, ptr %retval, align 4
  ret i32 %4
}

; Function Attrs: mustprogress uwtable
define void @_ZN6icu_756number4impl17ParsedPatternInfo12consumeAffixERNS1_9EndpointsER10UErrorCode(ptr noundef nonnull align 8 dereferenceable(433) %this, ptr noundef nonnull align 4 dereferenceable(8) %endpoints, ptr noundef nonnull align 4 dereferenceable(4) %status) #1 align 2 {
entry:
  %this.addr = alloca ptr, align 8
  %endpoints.addr = alloca ptr, align 8
  %status.addr = alloca ptr, align 8
  store ptr %this, ptr %this.addr, align 8
  store ptr %endpoints, ptr %endpoints.addr, align 8
  store ptr %status, ptr %status.addr, align 8
  %this1 = load ptr, ptr %this.addr, align 8
  %state = getelementptr inbounds %"struct.icu_75::number::impl::ParsedPatternInfo", ptr %this1, i32 0, i32 4
  %offset = getelementptr inbounds %"struct.icu_75::number::impl::ParsedPatternInfo::ParserState", ptr %state, i32 0, i32 1
  %0 = load i32, ptr %offset, align 8
  %1 = load ptr, ptr %endpoints.addr, align 8
  %start = getelementptr inbounds %"struct.icu_75::number::impl::Endpoints", ptr %1, i32 0, i32 0
  store i32 %0, ptr %start, align 4
  br label %while.body

while.body:                                       ; preds = %if.end, %entry
  %state2 = getelementptr inbounds %"struct.icu_75::number::impl::ParsedPatternInfo", ptr %this1, i32 0, i32 4
  %call = call noundef i32 @_ZN6icu_756number4impl17ParsedPatternInfo11ParserState4peekEv(ptr noundef nonnull align 8 dereferenceable(12) %state2)
  switch i32 %call, label %sw.default [
    i32 35, label %sw.bb
    i32 64, label %sw.bb
    i32 59, label %sw.bb
    i32 42, label %sw.bb
    i32 46, label %sw.bb
    i32 44, label %sw.bb
    i32 48, label %sw.bb
    i32 49, label %sw.bb
    i32 50, label %sw.bb
    i32 51, label %sw.bb
    i32 52, label %sw.bb
    i32 53, label %sw.bb
    i32 54, label %sw.bb
    i32 55, label %sw.bb
    i32 56, label %sw.bb
    i32 57, label %sw.bb
    i32 -1, label %sw.bb
    i32 37, label %sw.bb3
    i32 8240, label %sw.bb4
    i32 164, label %sw.bb6
    i32 45, label %sw.bb8
    i32 43, label %sw.bb10
  ]

sw.bb:                                            ; preds = %while.body, %while.body, %while.body, %while.body, %while.body, %while.body, %while.body, %while.body, %while.body, %while.body, %while.body, %while.body, %while.body, %while.body, %while.body, %while.body, %while.body
  br label %after_outer

sw.bb3:                                           ; preds = %while.body
  %currentSubpattern = getelementptr inbounds %"struct.icu_75::number::impl::ParsedPatternInfo", ptr %this1, i32 0, i32 5
  %2 = load ptr, ptr %currentSubpattern, align 8
  %hasPercentSign = getelementptr inbounds %"struct.icu_75::number::impl::ParsedSubpatternInfo", ptr %2, i32 0, i32 16
  store i8 1, ptr %hasPercentSign, align 8
  br label %sw.epilog

sw.bb4:                                           ; preds = %while.body
  %currentSubpattern5 = getelementptr inbounds %"struct.icu_75::number::impl::ParsedPatternInfo", ptr %this1, i32 0, i32 5
  %3 = load ptr, ptr %currentSubpattern5, align 8
  %hasPerMilleSign = getelementptr inbounds %"struct.icu_75::number::impl::ParsedSubpatternInfo", ptr %3, i32 0, i32 17
  store i8 1, ptr %hasPerMilleSign, align 1
  br label %sw.epilog

sw.bb6:                                           ; preds = %while.body
  %currentSubpattern7 = getelementptr inbounds %"struct.icu_75::number::impl::ParsedPatternInfo", ptr %this1, i32 0, i32 5
  %4 = load ptr, ptr %currentSubpattern7, align 8
  %hasCurrencySign = getelementptr inbounds %"struct.icu_75::number::impl::ParsedSubpatternInfo", ptr %4, i32 0, i32 18
  store i8 1, ptr %hasCurrencySign, align 2
  br label %sw.epilog

sw.bb8:                                           ; preds = %while.body
  %currentSubpattern9 = getelementptr inbounds %"struct.icu_75::number::impl::ParsedPatternInfo", ptr %this1, i32 0, i32 5
  %5 = load ptr, ptr %currentSubpattern9, align 8
  %hasMinusSign = getelementptr inbounds %"struct.icu_75::number::impl::ParsedSubpatternInfo", ptr %5, i32 0, i32 20
  store i8 1, ptr %hasMinusSign, align 4
  br label %sw.epilog

sw.bb10:                                          ; preds = %while.body
  %currentSubpattern11 = getelementptr inbounds %"struct.icu_75::number::impl::ParsedPatternInfo", ptr %this1, i32 0, i32 5
  %6 = load ptr, ptr %currentSubpattern11, align 8
  %hasPlusSign = getelementptr inbounds %"struct.icu_75::number::impl::ParsedSubpatternInfo", ptr %6, i32 0, i32 21
  store i8 1, ptr %hasPlusSign, align 1
  br label %sw.epilog

sw.default:                                       ; preds = %while.body
  br label %sw.epilog

sw.epilog:                                        ; preds = %sw.default, %sw.bb10, %sw.bb8, %sw.bb6, %sw.bb4, %sw.bb3
  %7 = load ptr, ptr %status.addr, align 8
  call void @_ZN6icu_756number4impl17ParsedPatternInfo14consumeLiteralER10UErrorCode(ptr noundef nonnull align 8 dereferenceable(433) %this1, ptr noundef nonnull align 4 dereferenceable(4) %7)
  %8 = load ptr, ptr %status.addr, align 8
  %9 = load i32, ptr %8, align 4
  %call12 = call noundef signext i8 @_ZL9U_FAILURE10UErrorCode(i32 noundef %9)
  %tobool = icmp ne i8 %call12, 0
  br i1 %tobool, label %if.then, label %if.end

if.then:                                          ; preds = %sw.epilog
  br label %return

if.end:                                           ; preds = %sw.epilog
  br label %while.body, !llvm.loop !4

after_outer:                                      ; preds = %sw.bb
  %state13 = getelementptr inbounds %"struct.icu_75::number::impl::ParsedPatternInfo", ptr %this1, i32 0, i32 4
  %offset14 = getelementptr inbounds %"struct.icu_75::number::impl::ParsedPatternInfo::ParserState", ptr %state13, i32 0, i32 1
  %10 = load i32, ptr %offset14, align 8
  %11 = load ptr, ptr %endpoints.addr, align 8
  %end = getelementptr inbounds %"struct.icu_75::number::impl::Endpoints", ptr %11, i32 0, i32 1
  store i32 %10, ptr %end, align 4
  br label %return

return:                                           ; preds = %after_outer, %if.then
  ret void
}