; Function Attrs: mustprogress uwtable
define void @_ZN6icu_756number4impl17ParsedPatternInfo12consumeAffixERNS1_9EndpointsER10UErrorCode(ptr nocapture noundef nonnull align 8 dereferenceable(433) %this, ptr nocapture noundef nonnull writeonly align 4 dereferenceable(8) %endpoints, ptr nocapture noundef nonnull align 4 dereferenceable(4) %status) local_unnamed_addr #1 align 2 {
entry:
  %state = getelementptr inbounds i8, ptr %this, i64 408
  %offset = getelementptr inbounds i8, ptr %this, i64 416
  %0 = load i32, ptr %offset, align 8
  store i32 %0, ptr %endpoints, align 4
  %currentSubpattern11 = getelementptr inbounds i8, ptr %this, i64 424
  br label %while.body

while.body:                                       ; preds = %sw.epilog, %entry
  %1 = load i32, ptr %offset, align 8
  %2 = load ptr, ptr %state, align 8
  %fUnion.i.i.i = getelementptr inbounds i8, ptr %2, i64 8
  %3 = load i16, ptr %fUnion.i.i.i, align 8
  %cmp.i.i.i = icmp slt i16 %3, 0
  %4 = ashr i16 %3, 5
  %shr.i.i.i = sext i16 %4 to i32
  %fLength.i.i = getelementptr inbounds i8, ptr %2, i64 12
  %5 = load i32, ptr %fLength.i.i, align 4
  %cond.i.i = select i1 %cmp.i.i.i, i32 %5, i32 %shr.i.i.i
  %cmp.i = icmp eq i32 %1, %cond.i.i
  br i1 %cmp.i, label %after_outer, label %_ZN6icu_756number4impl17ParsedPatternInfo11ParserState4peekEv.exit

_ZN6icu_756number4impl17ParsedPatternInfo11ParserState4peekEv.exit: ; preds = %while.body
  %call4.i = tail call noundef i32 @_ZNK6icu_7513UnicodeString8char32AtEi(ptr noundef nonnull align 8 dereferenceable(64) %2, i32 noundef %1)
  switch i32 %call4.i, label %sw.epilog [
    i32 35, label %after_outer
    i32 64, label %after_outer
    i32 59, label %after_outer
    i32 42, label %after_outer
    i32 46, label %after_outer
    i32 44, label %after_outer
    i32 48, label %after_outer
    i32 49, label %after_outer
    i32 50, label %after_outer
    i32 51, label %after_outer
    i32 52, label %after_outer
    i32 53, label %after_outer
    i32 54, label %after_outer
    i32 55, label %after_outer
    i32 56, label %after_outer
    i32 57, label %after_outer
    i32 -1, label %after_outer
    i32 37, label %sw.bb3
    i32 8240, label %sw.bb4
    i32 164, label %sw.bb6
    i32 45, label %sw.bb8
    i32 43, label %sw.bb10
  ]

sw.bb3:                                           ; preds = %_ZN6icu_756number4impl17ParsedPatternInfo11ParserState4peekEv.exit
  %6 = load ptr, ptr %currentSubpattern11, align 8
  %hasPercentSign = getelementptr inbounds i8, ptr %6, i64 136
  store i8 1, ptr %hasPercentSign, align 8
  br label %sw.epilog

sw.bb4:                                           ; preds = %_ZN6icu_756number4impl17ParsedPatternInfo11ParserState4peekEv.exit
  %7 = load ptr, ptr %currentSubpattern11, align 8
  %hasPerMilleSign = getelementptr inbounds i8, ptr %7, i64 137
  store i8 1, ptr %hasPerMilleSign, align 1
  br label %sw.epilog

sw.bb6:                                           ; preds = %_ZN6icu_756number4impl17ParsedPatternInfo11ParserState4peekEv.exit
  %8 = load ptr, ptr %currentSubpattern11, align 8
  %hasCurrencySign = getelementptr inbounds i8, ptr %8, i64 138
  store i8 1, ptr %hasCurrencySign, align 2
  br label %sw.epilog

sw.bb8:                                           ; preds = %_ZN6icu_756number4impl17ParsedPatternInfo11ParserState4peekEv.exit
  %9 = load ptr, ptr %currentSubpattern11, align 8
  %hasMinusSign = getelementptr inbounds i8, ptr %9, i64 140
  store i8 1, ptr %hasMinusSign, align 4
  br label %sw.epilog

sw.bb10:                                          ; preds = %_ZN6icu_756number4impl17ParsedPatternInfo11ParserState4peekEv.exit
  %10 = load ptr, ptr %currentSubpattern11, align 8
  %hasPlusSign = getelementptr inbounds i8, ptr %10, i64 141
  store i8 1, ptr %hasPlusSign, align 1
  br label %sw.epilog

sw.epilog:                                        ; preds = %_ZN6icu_756number4impl17ParsedPatternInfo11ParserState4peekEv.exit, %sw.bb10, %sw.bb8, %sw.bb6, %sw.bb4, %sw.bb3
  tail call void @_ZN6icu_756number4impl17ParsedPatternInfo14consumeLiteralER10UErrorCode(ptr noundef nonnull align 8 dereferenceable(433) %this, ptr noundef nonnull align 4 dereferenceable(4) %status)
  %11 = load i32, ptr %status, align 4
  %cmp.i3 = icmp slt i32 %11, 1
  br i1 %cmp.i3, label %while.body, label %return, !llvm.loop !4

after_outer:                                      ; preds = %while.body, %_ZN6icu_756number4impl17ParsedPatternInfo11ParserState4peekEv.exit, %_ZN6icu_756number4impl17ParsedPatternInfo11ParserState4peekEv.exit, %_ZN6icu_756number4impl17ParsedPatternInfo11ParserState4peekEv.exit, %_ZN6icu_756number4impl17ParsedPatternInfo11ParserState4peekEv.exit, %_ZN6icu_756number4impl17ParsedPatternInfo11ParserState4peekEv.exit, %_ZN6icu_756number4impl17ParsedPatternInfo11ParserState4peekEv.exit, %_ZN6icu_756number4impl17ParsedPatternInfo11ParserState4peekEv.exit, %_ZN6icu_756number4impl17ParsedPatternInfo11ParserState4peekEv.exit, %_ZN6icu_756number4impl17ParsedPatternInfo11ParserState4peekEv.exit, %_ZN6icu_756number4impl17ParsedPatternInfo11ParserState4peekEv.exit, %_ZN6icu_756number4impl17ParsedPatternInfo11ParserState4peekEv.exit, %_ZN6icu_756number4impl17ParsedPatternInfo11ParserState4peekEv.exit, %_ZN6icu_756number4impl17ParsedPatternInfo11ParserState4peekEv.exit, %_ZN6icu_756number4impl17ParsedPatternInfo11ParserState4peekEv.exit, %_ZN6icu_756number4impl17ParsedPatternInfo11ParserState4peekEv.exit, %_ZN6icu_756number4impl17ParsedPatternInfo11ParserState4peekEv.exit, %_ZN6icu_756number4impl17ParsedPatternInfo11ParserState4peekEv.exit
  %12 = load i32, ptr %offset, align 8
  %end = getelementptr inbounds i8, ptr %endpoints, i64 4
  store i32 %12, ptr %end, align 4
  br label %return

return:                                           ; preds = %sw.epilog, %after_outer
  ret void
}